target datalayout = "e-m:e-p270:32:32-p271:32:32-p272:64:64-i64:64-i128:128-f80:128-n8:16:32:64-S128"
target triple = "x86_64-pc-linux-gnu"

%"class.llvm::Register" = type { i32 }
%"struct.llvm::LaneBitmask" = type { i64 }
%"class.llvm::SmallVectorBase" = type { ptr, i32, i32 }
%"class.std::vector" = type { %"struct.std::_Vector_base" }
%"struct.std::_Vector_base" = type { %"struct.std::_Vector_base<unsigned int, std::allocator<unsigned int>>::_Vector_impl" }
%"struct.std::_Vector_base<unsigned int, std::allocator<unsigned int>>::_Vector_impl" = type { %"struct.std::_Vector_base<unsigned int, std::allocator<unsigned int>>::_Vector_impl_data" }
%"struct.std::_Vector_base<unsigned int, std::allocator<unsigned int>>::_Vector_impl_data" = type { ptr, ptr, ptr }
%"struct.llvm::RegisterPressure" = type { %"class.std::vector", %"class.llvm::SmallVector.60", %"class.llvm::SmallVector.60" }
%"class.llvm::SmallVector.60" = type { %"class.llvm::SmallVectorImpl.61", %"struct.llvm::SmallVectorStorage.64" }
%"class.llvm::SmallVectorImpl.61" = type { %"class.llvm::SmallVectorTemplateBase.62" }
%"class.llvm::SmallVectorTemplateBase.62" = type { %"class.llvm::SmallVectorTemplateCommon.63" }
%"class.llvm::SmallVectorTemplateCommon.63" = type { %"class.llvm::SmallVectorBase" }
%"struct.llvm::SmallVectorStorage.64" = type { [128 x i8] }
%"class.llvm::SlotIndex" = type { %"class.llvm::PointerIntPair.65" }
%"class.llvm::PointerIntPair.65" = type { %"struct.llvm::detail::PunnedPointer.66" }
%"struct.llvm::detail::PunnedPointer.66" = type { [8 x i8] }
%"struct.llvm::IntervalPressure" = type { %"struct.llvm::RegisterPressure", %"class.llvm::SlotIndex", %"class.llvm::SlotIndex" }
%"class.llvm::ilist_node_base" = type { %"class.llvm::ilist_detail::node_base_prevnext" }
%"class.llvm::ilist_detail::node_base_prevnext" = type { ptr, ptr }
%"struct.llvm::RegisterMaskPair" = type { %"class.llvm::Register", %"struct.llvm::LaneBitmask" }
%"class.llvm::IndexListEntry" = type <{ %"class.llvm::ilist_node.276", ptr, i32, [4 x i8] }>
%"class.llvm::ilist_node.276" = type { %"class.llvm::ilist_node_impl.277" }
%"class.llvm::ilist_node_impl.277" = type { %"class.llvm::ilist_node_base" }

; Function Attrs: mustprogress nounwind uwtable
define linkonce_odr hidden noundef ptr @_ZN4llvm21PointerLikeTypeTraitsIPNS_14IndexListEntryEE18getFromVoidPointerEPv(ptr noundef %0) #0 comdat align 2 {
  %2 = alloca ptr, align 8
  store ptr %0, ptr %2, align 8
  %3 = load ptr, ptr %2, align 8
  ret ptr %3
}

; Function Attrs: mustprogress nounwind uwtable
define linkonce_odr hidden noundef i64 @_ZNK4llvm6detail13PunnedPointerIPNS_14IndexListEntryEE5asIntEv(ptr noundef nonnull align 8 dereferenceable(8) %0) #0 comdat align 2 {
  %2 = alloca ptr, align 8
  %3 = alloca i64, align 8
  store ptr %0, ptr %2, align 8
  %4 = load ptr, ptr %2, align 8
  store i64 0, ptr %3, align 8
  %5 = getelementptr inbounds nuw %"struct.llvm::detail::PunnedPointer.66", ptr %4, i32 0, i32 0
  %6 = getelementptr inbounds [8 x i8], ptr %5, i64 0, i64 0
  call void @llvm.memcpy.p0.p0.i64(ptr align 8 %3, ptr align 8 %6, i64 8, i1 false)
  %7 = load i64, ptr %3, align 8
  ret i64 %7
}

; Function Attrs: mustprogress nounwind uwtable
define linkonce_odr hidden noundef i64 @_ZN4llvm18PointerIntPairInfoIPNS_14IndexListEntryELj2ENS_21PointerLikeTypeTraitsIS2_EEE6getIntEl(i64 noundef %0) #0 comdat align 2 {
  %2 = alloca i64, align 8
  store i64 %0, ptr %2, align 8
  %3 = load i64, ptr %2, align 8
  %4 = ashr i64 %3, 1
  %5 = and i64 %4, 3
  ret i64 %5
}

; Function Attrs: mustprogress nounwind uwtable
define linkonce_odr hidden noundef ptr @_ZN4llvm18PointerIntPairInfoIPNS_14IndexListEntryELj2ENS_21PointerLikeTypeTraitsIS2_EEE10getPointerEl(i64 noundef %0) #0 comdat align 2 {
  %2 = alloca i64, align 8
  store i64 %0, ptr %2, align 8
  %3 = load i64, ptr %2, align 8
  %4 = and i64 %3, -8
  %5 = inttoptr i64 %4 to ptr
  %6 = call noundef ptr @_ZN4llvm21PointerLikeTypeTraitsIPNS_14IndexListEntryEE18getFromVoidPointerEPv(ptr noundef %5)
  ret ptr %6
}

; Function Attrs: mustprogress nounwind uwtable
define linkonce_odr hidden noundef i64 @_ZNK4llvm6detail13PunnedPointerIPNS_14IndexListEntryEEcvlEv(ptr noundef nonnull align 8 dereferenceable(8) %0) #0 comdat align 2 {
  %2 = alloca ptr, align 8
  store ptr %0, ptr %2, align 8
  %3 = load ptr, ptr %2, align 8
  %4 = call noundef i64 @_ZNK4llvm6detail13PunnedPointerIPNS_14IndexListEntryEE5asIntEv(ptr noundef nonnull align 8 dereferenceable(8) %3)
  ret i64 %4
}

; Function Attrs: mustprogress nounwind uwtable
define linkonce_odr hidden noundef nonnull align 8 dereferenceable(8) ptr @_ZN4llvm6detail13PunnedPointerIPNS_14IndexListEntryEEaSEl(ptr noundef nonnull align 8 dereferenceable(8) %0, i64 noundef %1) #0 comdat align 2 {
  %3 = alloca ptr, align 8
  %4 = alloca i64, align 8
  store ptr %0, ptr %3, align 8
  store i64 %1, ptr %4, align 8
  %5 = load ptr, ptr %3, align 8
  %6 = getelementptr inbounds nuw %"struct.llvm::detail::PunnedPointer.66", ptr %5, i32 0, i32 0
  %7 = getelementptr inbounds [8 x i8], ptr %6, i64 0, i64 0
  call void @llvm.memcpy.p0.p0.i64(ptr align 8 %7, ptr align 8 %4, i64 8, i1 false)
  ret ptr %5
}

; Function Attrs: mustprogress nounwind uwtable
define linkonce_odr hidden noundef i32 @_ZNK4llvm14PointerIntPairIPNS_14IndexListEntryELj2EjNS_21PointerLikeTypeTraitsIS2_EENS_18PointerIntPairInfoIS2_Lj2ES4_EEE6getIntEv(ptr noundef nonnull align 8 dereferenceable(8) %0) #0 comdat align 2 {
  %2 = alloca ptr, align 8
  store ptr %0, ptr %2, align 8
  %3 = load ptr, ptr %2, align 8
  %4 = getelementptr inbounds nuw %"class.llvm::PointerIntPair.65", ptr %3, i32 0, i32 0
  %5 = call noundef i64 @_ZNK4llvm6detail13PunnedPointerIPNS_14IndexListEntryEEcvlEv(ptr noundef nonnull align 8 dereferenceable(8) %4)
  %6 = call noundef i64 @_ZN4llvm18PointerIntPairInfoIPNS_14IndexListEntryELj2ENS_21PointerLikeTypeTraitsIS2_EEE6getIntEl(i64 noundef %5)
  %7 = trunc i64 %6 to i32
  ret i32 %7
}

; Function Attrs: mustprogress nounwind uwtable
define linkonce_odr hidden noundef ptr @_ZNK4llvm14PointerIntPairIPNS_14IndexListEntryELj2EjNS_21PointerLikeTypeTraitsIS2_EENS_18PointerIntPairInfoIS2_Lj2ES4_EEE10getPointerEv(ptr noundef nonnull align 8 dereferenceable(8) %0) #0 comdat align 2 {
  %2 = alloca ptr, align 8
  store ptr %0, ptr %2, align 8
  %3 = load ptr, ptr %2, align 8
  %4 = getelementptr inbounds nuw %"class.llvm::PointerIntPair.65", ptr %3, i32 0, i32 0
  %5 = call noundef i64 @_ZNK4llvm6detail13PunnedPointerIPNS_14IndexListEntryEEcvlEv(ptr noundef nonnull align 8 dereferenceable(8) %4)
  %6 = call noundef ptr @_ZN4llvm18PointerIntPairInfoIPNS_14IndexListEntryELj2ENS_21PointerLikeTypeTraitsIS2_EEE10getPointerEl(i64 noundef %5)
  ret ptr %6
}

; Function Attrs: mustprogress nounwind uwtable
define linkonce_odr hidden void @_ZN4llvm6detail13PunnedPointerIPNS_14IndexListEntryEEC2El(ptr noundef nonnull align 8 dereferenceable(8) %0, i64 noundef %1) unnamed_addr #0 comdat align 2 {
  %3 = alloca ptr, align 8
  %4 = alloca i64, align 8
  store ptr %0, ptr %3, align 8
  store i64 %1, ptr %4, align 8
  %5 = load ptr, ptr %3, align 8
  %6 = load i64, ptr %4, align 8
  %7 = call noundef nonnull align 8 dereferenceable(8) ptr @_ZN4llvm6detail13PunnedPointerIPNS_14IndexListEntryEEaSEl(ptr noundef nonnull align 8 dereferenceable(8) %5, i64 noundef %6)
  ret void
}

; Function Attrs: mustprogress nounwind uwtable
define linkonce_odr hidden noundef i32 @_ZNK4llvm9SlotIndex7getSlotEv(ptr noundef nonnull align 8 dereferenceable(8) %0) #0 comdat align 2 {
  %2 = alloca ptr, align 8
  store ptr %0, ptr %2, align 8
  %3 = load ptr, ptr %2, align 8
  %4 = getelementptr inbounds nuw %"class.llvm::SlotIndex", ptr %3, i32 0, i32 0
  %5 = call noundef i32 @_ZNK4llvm14PointerIntPairIPNS_14IndexListEntryELj2EjNS_21PointerLikeTypeTraitsIS2_EENS_18PointerIntPairInfoIS2_Lj2ES4_EEE6getIntEv(ptr noundef nonnull align 8 dereferenceable(8) %4)
  ret i32 %5
}

; Function Attrs: mustprogress nounwind uwtable
define linkonce_odr hidden noundef i32 @_ZNK4llvm14IndexListEntry8getIndexEv(ptr noundef nonnull align 8 dereferenceable(28) %0) #0 comdat align 2 {
  %2 = alloca ptr, align 8
  store ptr %0, ptr %2, align 8
  %3 = load ptr, ptr %2, align 8
  %4 = getelementptr inbounds nuw %"class.llvm::IndexListEntry", ptr %3, i32 0, i32 2
  %5 = load i32, ptr %4, align 8
  ret i32 %5
}

; Function Attrs: mustprogress nounwind uwtable
define linkonce_odr hidden noundef ptr @_ZNK4llvm9SlotIndex9listEntryEv(ptr noundef nonnull align 8 dereferenceable(8) %0) #0 comdat align 2 {
  %2 = alloca ptr, align 8
  store ptr %0, ptr %2, align 8
  %3 = load ptr, ptr %2, align 8
  %4 = getelementptr inbounds nuw %"class.llvm::SlotIndex", ptr %3, i32 0, i32 0
  %5 = call noundef ptr @_ZNK4llvm14PointerIntPairIPNS_14IndexListEntryELj2EjNS_21PointerLikeTypeTraitsIS2_EENS_18PointerIntPairInfoIS2_Lj2ES4_EEE10getPointerEv(ptr noundef nonnull align 8 dereferenceable(8) %4)
  ret ptr %5
}

; Function Attrs: mustprogress nounwind uwtable
define linkonce_odr hidden void @_ZN4llvm23SmallVectorTemplateBaseINS_16RegisterMaskPairELb1EE13destroy_rangeEPS1_S3_(ptr noundef %0, ptr noundef %1) #0 comdat align 2 {
  %3 = alloca ptr, align 8
  %4 = alloca ptr, align 8
  store ptr %0, ptr %3, align 8
  store ptr %1, ptr %4, align 8
  ret void
}

; Function Attrs: mustprogress nounwind uwtable
define linkonce_odr hidden noundef ptr @_ZN4llvm25SmallVectorTemplateCommonINS_16RegisterMaskPairEvE3endEv(ptr noundef nonnull align 8 dereferenceable(16) %0) #0 comdat align 2 {
  %2 = alloca ptr, align 8
  store ptr %0, ptr %2, align 8
  %3 = load ptr, ptr %2, align 8
  %4 = call noundef ptr @_ZN4llvm25SmallVectorTemplateCommonINS_16RegisterMaskPairEvE5beginEv(ptr noundef nonnull align 8 dereferenceable(16) %3)
  %5 = call noundef i64 @_ZNK4llvm15SmallVectorBaseIjE4sizeEv(ptr noundef nonnull align 8 dereferenceable(16) %3)
  %6 = getelementptr inbounds %"struct.llvm::RegisterMaskPair", ptr %4, i64 %5
  ret ptr %6
}

; Function Attrs: mustprogress nounwind uwtable
define linkonce_odr hidden noundef ptr @_ZN4llvm25SmallVectorTemplateCommonINS_16RegisterMaskPairEvE5beginEv(ptr noundef nonnull align 8 dereferenceable(16) %0) #0 comdat align 2 {
  %2 = alloca ptr, align 8
  store ptr %0, ptr %2, align 8
  %3 = load ptr, ptr %2, align 8
  %4 = getelementptr inbounds nuw %"class.llvm::SmallVectorBase", ptr %3, i32 0, i32 0
  %5 = load ptr, ptr %4, align 8
  ret ptr %5
}

; Function Attrs: mustprogress nounwind uwtable
define linkonce_odr hidden void @_ZN4llvm14PointerIntPairIPNS_14IndexListEntryELj2EjNS_21PointerLikeTypeTraitsIS2_EENS_18PointerIntPairInfoIS2_Lj2ES4_EEEC2Ev(ptr noundef nonnull align 8 dereferenceable(8) %0) unnamed_addr #0 comdat align 2 {
  %2 = alloca ptr, align 8
  store ptr %0, ptr %2, align 8
  %3 = load ptr, ptr %2, align 8
  %4 = getelementptr inbounds nuw %"class.llvm::PointerIntPair.65", ptr %3, i32 0, i32 0
  call void @_ZN4llvm6detail13PunnedPointerIPNS_14IndexListEntryEEC2El(ptr noundef nonnull align 8 dereferenceable(8) %4, i64 noundef 0)
  ret void
}

; Function Attrs: mustprogress nounwind uwtable
define linkonce_odr hidden noundef i32 @_ZNK4llvm9SlotIndex8getIndexEv(ptr noundef nonnull align 8 dereferenceable(8) %0) #0 comdat align 2 {
  %2 = alloca ptr, align 8
  store ptr %0, ptr %2, align 8
  %3 = load ptr, ptr %2, align 8
  %4 = call noundef ptr @_ZNK4llvm9SlotIndex9listEntryEv(ptr noundef nonnull align 8 dereferenceable(8) %3)
  %5 = call noundef i32 @_ZNK4llvm14IndexListEntry8getIndexEv(ptr noundef nonnull align 8 dereferenceable(28) %4)
  %6 = call noundef i32 @_ZNK4llvm9SlotIndex7getSlotEv(ptr noundef nonnull align 8 dereferenceable(8) %3)
  %7 = or i32 %5, %6
  ret i32 %7
}

; Function Attrs: mustprogress nounwind uwtable
define linkonce_odr hidden void @_ZN4llvm15SmallVectorImplINS_16RegisterMaskPairEE5clearEv(ptr noundef nonnull align 8 dereferenceable(16) %0) #0 comdat align 2 {
  %2 = alloca ptr, align 8
  store ptr %0, ptr %2, align 8
  %3 = load ptr, ptr %2, align 8
  %4 = call noundef ptr @_ZN4llvm25SmallVectorTemplateCommonINS_16RegisterMaskPairEvE5beginEv(ptr noundef nonnull align 8 dereferenceable(16) %3)
  %5 = call noundef ptr @_ZN4llvm25SmallVectorTemplateCommonINS_16RegisterMaskPairEvE3endEv(ptr noundef nonnull align 8 dereferenceable(16) %3)
  call void @_ZN4llvm23SmallVectorTemplateBaseINS_16RegisterMaskPairELb1EE13destroy_rangeEPS1_S3_(ptr noundef %4, ptr noundef %5)
  %6 = getelementptr inbounds nuw %"class.llvm::SmallVectorBase", ptr %3, i32 0, i32 1
  store i32 0, ptr %6, align 8
  ret void
}

; Function Attrs: mustprogress nounwind uwtable
define linkonce_odr hidden void @_ZN4llvm9SlotIndexC2Ev(ptr noundef nonnull align 8 dereferenceable(8) %0) unnamed_addr #0 comdat align 2 {
  %2 = alloca ptr, align 8
  store ptr %0, ptr %2, align 8
  %3 = load ptr, ptr %2, align 8
  %4 = getelementptr inbounds nuw %"class.llvm::SlotIndex", ptr %3, i32 0, i32 0
  call void @_ZN4llvm14PointerIntPairIPNS_14IndexListEntryELj2EjNS_21PointerLikeTypeTraitsIS2_EENS_18PointerIntPairInfoIS2_Lj2ES4_EEEC2Ev(ptr noundef nonnull align 8 dereferenceable(8) %4)
  ret void
}

; Function Attrs: mustprogress nounwind uwtable
define linkonce_odr hidden noundef zeroext i1 @_ZNK4llvm9SlotIndexleES0_(ptr noundef nonnull align 8 dereferenceable(8) %0, i64 %1) #0 comdat align 2 {
  %3 = alloca %"class.llvm::SlotIndex", align 8
  %4 = alloca ptr, align 8
  %5 = getelementptr inbounds nuw %"class.llvm::SlotIndex", ptr %3, i32 0, i32 0
  %6 = getelementptr inbounds nuw %"class.llvm::PointerIntPair.65", ptr %5, i32 0, i32 0
  %7 = getelementptr inbounds nuw %"struct.llvm::detail::PunnedPointer.66", ptr %6, i32 0, i32 0
  store i64 %1, ptr %7, align 8
  store ptr %0, ptr %4, align 8
  %8 = load ptr, ptr %4, align 8
  %9 = call noundef i32 @_ZNK4llvm9SlotIndex8getIndexEv(ptr noundef nonnull align 8 dereferenceable(8) %8)
  %10 = call noundef i32 @_ZNK4llvm9SlotIndex8getIndexEv(ptr noundef nonnull align 8 dereferenceable(8) %3)
  %11 = icmp ule i32 %9, %10
  ret i1 %11
}

; Function Attrs: mustprogress nounwind uwtable
define dso_local void @_ZN4llvm16IntervalPressure7openTopENS_9SlotIndexE(ptr noundef nonnull align 8 dereferenceable(328) %0, i64 %1) #0 align 2 {
  %3 = alloca %"class.llvm::SlotIndex", align 8
  %4 = alloca ptr, align 8
  %5 = alloca %"class.llvm::SlotIndex", align 8
  %6 = alloca %"class.llvm::SlotIndex", align 8
  %7 = getelementptr inbounds nuw %"class.llvm::SlotIndex", ptr %3, i32 0, i32 0
  %8 = getelementptr inbounds nuw %"class.llvm::PointerIntPair.65", ptr %7, i32 0, i32 0
  %9 = getelementptr inbounds nuw %"struct.llvm::detail::PunnedPointer.66", ptr %8, i32 0, i32 0
  store i64 %1, ptr %9, align 8
  store ptr %0, ptr %4, align 8
  %10 = load ptr, ptr %4, align 8
  %11 = getelementptr inbounds nuw %"struct.llvm::IntervalPressure", ptr %10, i32 0, i32 1
  call void @llvm.memcpy.p0.p0.i64(ptr align 8 %5, ptr align 8 %3, i64 8, i1 false)
  %12 = getelementptr inbounds nuw %"class.llvm::SlotIndex", ptr %5, i32 0, i32 0
  %13 = getelementptr inbounds nuw %"class.llvm::PointerIntPair.65", ptr %12, i32 0, i32 0
  %14 = getelementptr inbounds nuw %"struct.llvm::detail::PunnedPointer.66", ptr %13, i32 0, i32 0
  %15 = load i64, ptr %14, align 8
  %16 = call noundef zeroext i1 @_ZNK4llvm9SlotIndexleES0_(ptr noundef nonnull align 8 dereferenceable(8) %11, i64 %15)
  br i1 %16, label %17, label %18

17:                                               ; preds = %2
  br label %21

18:                                               ; preds = %2
  call void @llvm.memset.p0.i64(ptr align 8 %6, i8 0, i64 8, i1 false)
  call void @_ZN4llvm9SlotIndexC2Ev(ptr noundef nonnull align 8 dereferenceable(8) %6)
  %19 = getelementptr inbounds nuw %"struct.llvm::IntervalPressure", ptr %10, i32 0, i32 1
  call void @llvm.memcpy.p0.p0.i64(ptr align 8 %19, ptr align 8 %6, i64 8, i1 false)
  %20 = getelementptr inbounds nuw %"struct.llvm::RegisterPressure", ptr %10, i32 0, i32 1
  call void @_ZN4llvm15SmallVectorImplINS_16RegisterMaskPairEE5clearEv(ptr noundef nonnull align 8 dereferenceable(16) %20)
  br label %21

21:                                               ; preds = %18, %17
  ret void
}